target datalayout = "e-m:e-p270:32:32-p271:32:32-p272:64:64-i64:64-i128:128-f80:128-n8:16:32:64-S128"
target triple = "x86_64-pc-linux-gnu"

@.str.24 = private unnamed_addr constant [28 x i8] c"../openssl/test/test_test.c\00", align 1
@stderr = external global ptr, align 8
@.str.47 = private unnamed_addr constant [19 x i8] c"# FATAL: %s != %d\0A\00", align 1
@.str.71 = private unnamed_addr constant [23 x i8] c"TEST_char_eq('a', 'a')\00", align 1
@.str.72 = private unnamed_addr constant [4 x i8] c"'a'\00", align 1
@.str.73 = private unnamed_addr constant [23 x i8] c"TEST_char_eq('a', 'A')\00", align 1
@.str.74 = private unnamed_addr constant [4 x i8] c"'A'\00", align 1
@.str.75 = private unnamed_addr constant [23 x i8] c"TEST_char_ne('a', 'c')\00", align 1
@.str.76 = private unnamed_addr constant [4 x i8] c"'c'\00", align 1
@.str.77 = private unnamed_addr constant [23 x i8] c"TEST_char_ne('e', 'e')\00", align 1
@.str.78 = private unnamed_addr constant [4 x i8] c"'e'\00", align 1
@.str.79 = private unnamed_addr constant [23 x i8] c"TEST_char_lt('i', 'x')\00", align 1
@.str.80 = private unnamed_addr constant [4 x i8] c"'i'\00", align 1
@.str.81 = private unnamed_addr constant [4 x i8] c"'x'\00", align 1
@.str.82 = private unnamed_addr constant [23 x i8] c"TEST_char_lt('x', 'i')\00", align 1
@.str.83 = private unnamed_addr constant [23 x i8] c"TEST_char_le('i', 'x')\00", align 1
@.str.84 = private unnamed_addr constant [23 x i8] c"TEST_char_le('n', 'n')\00", align 1
@.str.85 = private unnamed_addr constant [4 x i8] c"'n'\00", align 1
@.str.86 = private unnamed_addr constant [23 x i8] c"TEST_char_le('x', 'i')\00", align 1
@.str.87 = private unnamed_addr constant [23 x i8] c"TEST_char_gt('w', 'n')\00", align 1
@.str.88 = private unnamed_addr constant [4 x i8] c"'w'\00", align 1
@.str.89 = private unnamed_addr constant [23 x i8] c"TEST_char_gt('n', 'w')\00", align 1
@.str.90 = private unnamed_addr constant [23 x i8] c"TEST_char_ge('w', 'n')\00", align 1
@.str.91 = private unnamed_addr constant [23 x i8] c"TEST_char_ge('p', 'p')\00", align 1
@.str.92 = private unnamed_addr constant [4 x i8] c"'p'\00", align 1
@.str.93 = private unnamed_addr constant [23 x i8] c"TEST_char_ge('n', 'w')\00", align 1

; Function Attrs: nounwind uwtable
define internal i32 @test_case(i32 noundef %0, ptr noundef %1, i32 noundef %2) #0 {
  %4 = alloca i32, align 4
  %5 = alloca i32, align 4
  %6 = alloca ptr, align 8
  %7 = alloca i32, align 4
  store i32 %0, ptr %5, align 4, !tbaa !4
  store ptr %1, ptr %6, align 8, !tbaa !9
  store i32 %2, ptr %7, align 4, !tbaa !4
  %8 = load i32, ptr %7, align 4, !tbaa !4
  %9 = load i32, ptr %5, align 4, !tbaa !4
  %10 = icmp ne i32 %8, %9
  br i1 %10, label %11, label %16

11:                                               ; preds = %3
  %12 = load ptr, ptr @stderr, align 8, !tbaa !16
  %13 = load ptr, ptr %6, align 8, !tbaa !9
  %14 = load i32, ptr %5, align 4, !tbaa !4
  %15 = call i32 (ptr, ptr, ...) @fprintf(ptr noundef %12, ptr noundef @.str.47, ptr noundef %13, i32 noundef %14) #7
  store i32 0, ptr %4, align 4
  br label %17

16:                                               ; preds = %3
  store i32 1, ptr %4, align 4
  br label %17

17:                                               ; preds = %16, %11
  %18 = load i32, ptr %4, align 4
  ret i32 %18
}

; Function Attrs: nounwind uwtable
define internal i32 @test_char() #0 {
  %1 = alloca i32, align 4
  %2 = call i32 @test_char_eq(ptr noundef @.str.24, i32 noundef 81, ptr noundef @.str.72, ptr noundef @.str.72, i8 noundef signext 97, i8 noundef signext 97)
  %3 = call i32 @test_case(i32 noundef 1, ptr noundef @.str.71, i32 noundef %2)
  %4 = icmp ne i32 %3, 0
  br i1 %4, label %5, label %57

5:                                                ; preds = %0
  %6 = call i32 @test_char_eq(ptr noundef @.str.24, i32 noundef 82, ptr noundef @.str.72, ptr noundef @.str.74, i8 noundef signext 97, i8 noundef signext 65)
  %7 = call i32 @test_case(i32 noundef 0, ptr noundef @.str.73, i32 noundef %6)
  %8 = icmp ne i32 %7, 0
  br i1 %8, label %9, label %57

9:                                                ; preds = %5
  %10 = call i32 @test_char_ne(ptr noundef @.str.24, i32 noundef 83, ptr noundef @.str.72, ptr noundef @.str.76, i8 noundef signext 97, i8 noundef signext 99)
  %11 = call i32 @test_case(i32 noundef 1, ptr noundef @.str.75, i32 noundef %10)
  %12 = icmp ne i32 %11, 0
  br i1 %12, label %13, label %57

13:                                               ; preds = %9
  %14 = call i32 @test_char_ne(ptr noundef @.str.24, i32 noundef 84, ptr noundef @.str.78, ptr noundef @.str.78, i8 noundef signext 101, i8 noundef signext 101)
  %15 = call i32 @test_case(i32 noundef 0, ptr noundef @.str.77, i32 noundef %14)
  %16 = icmp ne i32 %15, 0
  br i1 %16, label %17, label %57

17:                                               ; preds = %13
  %18 = call i32 @test_char_lt(ptr noundef @.str.24, i32 noundef 85, ptr noundef @.str.80, ptr noundef @.str.81, i8 noundef signext 105, i8 noundef signext 120)
  %19 = call i32 @test_case(i32 noundef 1, ptr noundef @.str.79, i32 noundef %18)
  %20 = icmp ne i32 %19, 0
  br i1 %20, label %21, label %57

21:                                               ; preds = %17
  %22 = call i32 @test_char_lt(ptr noundef @.str.24, i32 noundef 86, ptr noundef @.str.81, ptr noundef @.str.80, i8 noundef signext 120, i8 noundef signext 105)
  %23 = call i32 @test_case(i32 noundef 0, ptr noundef @.str.82, i32 noundef %22)
  %24 = icmp ne i32 %23, 0
  br i1 %24, label %25, label %57

25:                                               ; preds = %21
  %26 = call i32 @test_char_le(ptr noundef @.str.24, i32 noundef 87, ptr noundef @.str.80, ptr noundef @.str.81, i8 noundef signext 105, i8 noundef signext 120)
  %27 = call i32 @test_case(i32 noundef 1, ptr noundef @.str.83, i32 noundef %26)
  %28 = icmp ne i32 %27, 0
  br i1 %28, label %29, label %57

29:                                               ; preds = %25
  %30 = call i32 @test_char_le(ptr noundef @.str.24, i32 noundef 88, ptr noundef @.str.85, ptr noundef @.str.85, i8 noundef signext 110, i8 noundef signext 110)
  %31 = call i32 @test_case(i32 noundef 1, ptr noundef @.str.84, i32 noundef %30)
  %32 = icmp ne i32 %31, 0
  br i1 %32, label %33, label %57

33:                                               ; preds = %29
  %34 = call i32 @test_char_le(ptr noundef @.str.24, i32 noundef 89, ptr noundef @.str.81, ptr noundef @.str.80, i8 noundef signext 120, i8 noundef signext 105)
  %35 = call i32 @test_case(i32 noundef 0, ptr noundef @.str.86, i32 noundef %34)
  %36 = icmp ne i32 %35, 0
  br i1 %36, label %37, label %57

37:                                               ; preds = %33
  %38 = call i32 @test_char_gt(ptr noundef @.str.24, i32 noundef 90, ptr noundef @.str.88, ptr noundef @.str.85, i8 noundef signext 119, i8 noundef signext 110)
  %39 = call i32 @test_case(i32 noundef 1, ptr noundef @.str.87, i32 noundef %38)
  %40 = icmp ne i32 %39, 0
  br i1 %40, label %41, label %57

41:                                               ; preds = %37
  %42 = call i32 @test_char_gt(ptr noundef @.str.24, i32 noundef 91, ptr noundef @.str.85, ptr noundef @.str.88, i8 noundef signext 110, i8 noundef signext 119)
  %43 = call i32 @test_case(i32 noundef 0, ptr noundef @.str.89, i32 noundef %42)
  %44 = icmp ne i32 %43, 0
  br i1 %44, label %45, label %57

45:                                               ; preds = %41
  %46 = call i32 @test_char_ge(ptr noundef @.str.24, i32 noundef 92, ptr noundef @.str.88, ptr noundef @.str.85, i8 noundef signext 119, i8 noundef signext 110)
  %47 = call i32 @test_case(i32 noundef 1, ptr noundef @.str.90, i32 noundef %46)
  %48 = icmp ne i32 %47, 0
  br i1 %48, label %49, label %57

49:                                               ; preds = %45
  %50 = call i32 @test_char_ge(ptr noundef @.str.24, i32 noundef 93, ptr noundef @.str.92, ptr noundef @.str.92, i8 noundef signext 112, i8 noundef signext 112)
  %51 = call i32 @test_case(i32 noundef 1, ptr noundef @.str.91, i32 noundef %50)
  %52 = icmp ne i32 %51, 0
  br i1 %52, label %53, label %57

53:                                               ; preds = %49
  %54 = call i32 @test_char_ge(ptr noundef @.str.24, i32 noundef 94, ptr noundef @.str.85, ptr noundef @.str.88, i8 noundef signext 110, i8 noundef signext 119)
  %55 = call i32 @test_case(i32 noundef 0, ptr noundef @.str.93, i32 noundef %54)
  %56 = icmp ne i32 %55, 0
  br i1 %56, label %58, label %57

57:                                               ; preds = %53, %49, %45, %41, %37, %33, %29, %25, %21, %17, %13, %9, %5, %0
  br label %59

58:                                               ; preds = %53
  store i32 1, ptr %1, align 4
  br label %60

59:                                               ; preds = %57
  store i32 0, ptr %1, align 4
  br label %60

60:                                               ; preds = %59, %58
  %61 = load i32, ptr %1, align 4
  ret i32 %61
}